; Function Attrs: nounwind uwtable
define ptr @l_Lake_Package_unpack(ptr noundef %0, ptr noundef %1, ptr noundef %2, ptr noundef %3) local_unnamed_addr #0 {
  %5 = load ptr, ptr @l_Lake_Package_unpack___closed__1, align 8, !tbaa !4
  %6 = tail call ptr @lean_string_append(ptr noundef %5, ptr noundef %1) #5
  %7 = load ptr, ptr @l_Lake_Package_pack___closed__2, align 8, !tbaa !4
  %8 = tail call ptr @lean_string_append(ptr noundef %6, ptr noundef %7) #5
  tail call void @lean_inc_heartbeat() #5
  %9 = tail call noalias ptr @mi_malloc_small(i64 noundef 24) #5
  %10 = icmp eq ptr %9, null
  br i1 %10, label %11, label %lean_alloc_ctor.exit

11:                                               ; preds = %4
  tail call void @lean_internal_panic_out_of_memory() #6
  unreachable

lean_alloc_ctor.exit:                             ; preds = %4
  %12 = getelementptr inbounds nuw i8, ptr %9, i64 4
  %13 = getelementptr inbounds nuw i8, ptr %9, i64 16
  store i64 1, ptr %13, align 8, !tbaa !8
  store i32 1, ptr %9, align 4, !tbaa !10
  store i32 65560, ptr %12, align 4
  %14 = getelementptr inbounds nuw i8, ptr %9, i64 8
  store ptr %8, ptr %14, align 8, !tbaa !4
  %15 = tail call ptr @lean_array_push(ptr noundef %2, ptr noundef nonnull %9) #5
  %16 = getelementptr inbounds nuw i8, ptr %0, i64 16
  %17 = load ptr, ptr %16, align 8, !tbaa !4
  %18 = ptrtoint ptr %17 to i64
  %19 = and i64 %18, 1
  %.not = icmp eq i64 %19, 0
  br i1 %.not, label %20, label %lean_inc.exit28

20:                                               ; preds = %lean_alloc_ctor.exit
  %.val.i = load i32, ptr %17, align 4, !tbaa !10
  %21 = icmp sgt i32 %.val.i, 0
  br i1 %21, label %22, label %24, !prof !13

22:                                               ; preds = %20
  %23 = add nuw i32 %.val.i, 1
  store i32 %23, ptr %17, align 4, !tbaa !10
  br label %lean_inc.exit28

24:                                               ; preds = %20
  %.not.i35 = icmp eq i32 %.val.i, 0
  br i1 %.not.i35, label %lean_inc.exit28, label %25

25:                                               ; preds = %24
  tail call void @lean_inc_ref_cold(ptr noundef nonnull %17) #5
  br label %lean_inc.exit28

lean_inc.exit28:                                  ; preds = %25, %24, %22, %lean_alloc_ctor.exit
  %26 = getelementptr inbounds nuw i8, ptr %0, i64 32
  %27 = load ptr, ptr %26, align 8, !tbaa !4
  %28 = ptrtoint ptr %27 to i64
  %29 = and i64 %28, 1
  %.not42 = icmp eq i64 %29, 0
  br i1 %.not42, label %30, label %lean_inc.exit27

30:                                               ; preds = %lean_inc.exit28
  %.val.i36 = load i32, ptr %27, align 4, !tbaa !10
  %31 = icmp sgt i32 %.val.i36, 0
  br i1 %31, label %32, label %34, !prof !13

32:                                               ; preds = %30
  %33 = add nuw i32 %.val.i36, 1
  store i32 %33, ptr %27, align 4, !tbaa !10
  br label %lean_inc.exit27

34:                                               ; preds = %30
  %.not.i37 = icmp eq i32 %.val.i36, 0
  br i1 %.not.i37, label %lean_inc.exit27, label %35

35:                                               ; preds = %34
  tail call void @lean_inc_ref_cold(ptr noundef nonnull %27) #5
  br label %lean_inc.exit27

lean_inc.exit27:                                  ; preds = %35, %34, %32, %lean_inc.exit28
  %36 = ptrtoint ptr %0 to i64
  %37 = and i64 %36, 1
  %.not43 = icmp eq i64 %37, 0
  br i1 %.not43, label %38, label %lean_dec.exit30

38:                                               ; preds = %lean_inc.exit27
  %39 = load i32, ptr %0, align 4, !tbaa !10
  %40 = icmp sgt i32 %39, 1
  br i1 %40, label %41, label %43, !prof !13

41:                                               ; preds = %38
  %42 = add nsw i32 %39, -1
  store i32 %42, ptr %0, align 4, !tbaa !10
  br label %lean_dec.exit30

43:                                               ; preds = %38
  %.not.i = icmp eq i32 %39, 0
  br i1 %.not.i, label %lean_dec.exit30, label %44

44:                                               ; preds = %43
  tail call void @lean_dec_ref_cold(ptr noundef nonnull %0) #5
  br label %lean_dec.exit30

lean_dec.exit30:                                  ; preds = %44, %43, %41, %lean_inc.exit27
  %45 = getelementptr inbounds nuw i8, ptr %27, i64 56
  %46 = load ptr, ptr %45, align 8, !tbaa !4
  %47 = ptrtoint ptr %46 to i64
  %48 = and i64 %47, 1
  %.not44 = icmp eq i64 %48, 0
  br i1 %.not44, label %49, label %lean_inc.exit

49:                                               ; preds = %lean_dec.exit30
  %.val.i39 = load i32, ptr %46, align 4, !tbaa !10
  %50 = icmp sgt i32 %.val.i39, 0
  br i1 %50, label %51, label %53, !prof !13

51:                                               ; preds = %49
  %52 = add nuw i32 %.val.i39, 1
  store i32 %52, ptr %46, align 4, !tbaa !10
  br label %lean_inc.exit

53:                                               ; preds = %49
  %.not.i40 = icmp eq i32 %.val.i39, 0
  br i1 %.not.i40, label %lean_inc.exit, label %54

54:                                               ; preds = %53
  tail call void @lean_inc_ref_cold(ptr noundef nonnull %46) #5
  br label %lean_inc.exit

lean_inc.exit:                                    ; preds = %54, %53, %51, %lean_dec.exit30
  br i1 %.not42, label %55, label %lean_dec.exit29

55:                                               ; preds = %lean_inc.exit
  %56 = load i32, ptr %27, align 4, !tbaa !10
  %57 = icmp sgt i32 %56, 1
  br i1 %57, label %58, label %60, !prof !13

58:                                               ; preds = %55
  %59 = add nsw i32 %56, -1
  store i32 %59, ptr %27, align 4, !tbaa !10
  br label %lean_dec.exit29

60:                                               ; preds = %55
  %.not.i31 = icmp eq i32 %56, 0
  br i1 %.not.i31, label %lean_dec.exit29, label %61

61:                                               ; preds = %60
  tail call void @lean_dec_ref_cold(ptr noundef nonnull %27) #5
  br label %lean_dec.exit29

lean_dec.exit29:                                  ; preds = %61, %60, %58, %lean_inc.exit
  %62 = tail call ptr @l_System_FilePath_normalize(ptr noundef %46) #5
  %63 = tail call ptr @l_Lake_joinRelative(ptr noundef %17, ptr noundef %62) #5
  %64 = ptrtoint ptr %62 to i64
  %65 = and i64 %64, 1
  %.not45 = icmp eq i64 %65, 0
  br i1 %.not45, label %66, label %lean_dec.exit

66:                                               ; preds = %lean_dec.exit29
  %67 = load i32, ptr %62, align 4, !tbaa !10
  %68 = icmp sgt i32 %67, 1
  br i1 %68, label %69, label %71, !prof !13

69:                                               ; preds = %66
  %70 = add nsw i32 %67, -1
  store i32 %70, ptr %62, align 4, !tbaa !10
  br label %lean_dec.exit

71:                                               ; preds = %66
  %.not.i33 = icmp eq i32 %67, 0
  br i1 %.not.i33, label %lean_dec.exit, label %72

72:                                               ; preds = %71
  tail call void @lean_dec_ref_cold(ptr noundef nonnull %62) #5
  br label %lean_dec.exit

lean_dec.exit:                                    ; preds = %72, %71, %69, %lean_dec.exit29
  %73 = tail call ptr @l_Lake_untar(ptr noundef %1, ptr noundef %63, i8 noundef zeroext 1, ptr noundef %15, ptr noundef %3) #5
  ret ptr %73
}